target datalayout = "e-m:e-p270:32:32-p271:32:32-p272:64:64-i64:64-i128:128-f80:128-n8:16:32:64-S128"
target triple = "x86_64-pc-linux-gnu"

%struct.zbee_zcl_packet = type { i8, i8, i8, i8, i16, i8, i8 }
%struct._packet_info = type { ptr, ptr, i32, i32, %struct.nstime_t, %struct.nstime_t, %struct.nstime_t, i8, ptr, ptr, ptr, ptr, %struct._address, %struct._address, %struct._address, %struct._address, %struct._address, %struct._address, i32, ptr, i8, [3 x i8], %struct.anon, i32, i32, i32, i32, ptr, i8, ptr, ptr, i16, i16, i32, i32, i16, i32, i32, ptr, ptr, ptr, i8, i8, i16, i16, i16, i32, i16, i16, ptr, ptr, ptr, ptr, ptr, i32, i32 }
%struct.nstime_t = type { i64, i32 }
%struct._address = type { i32, i32, ptr, ptr }
%struct.anon = type { i8, [3 x i8] }

@hf_zbee_zcl_on_off_attr_onoff = internal global i32 0, align 4
@hf_zbee_zcl_on_off_attr_globalscenecontrol = internal global i32 0, align 4
@hf_zbee_zcl_on_off_attr_ontime = internal global i32 0, align 4
@hf_zbee_zcl_on_off_attr_offwaittime = internal global i32 0, align 4
@hf_zbee_zcl_on_off_attr_startuponoff = internal global i32 0, align 4
@hf_zbee_zcl_on_off_effect_identifier = internal global i32 0, align 4
@hf_zbee_zcl_on_off_effect_variant_delayed_all_off = internal global i32 0, align 4
@hf_zbee_zcl_on_off_effect_variant_dying_light = internal global i32 0, align 4
@hf_zbee_zcl_on_off_effect_variant_reserved = internal global i32 0, align 4
@hf_zbee_zcl_on_off_timed_off_control_mask = internal global i32 0, align 4
@hf_zbee_zcl_on_off_srv_rx_cmd_id = internal global i32 0, align 4
@ett_zbee_zcl_on_off = internal global i32 0, align 4
@ett_zbee_zcl_on_off_timed_off_control_mask = internal global i32 0, align 4
@.str.1189 = private unnamed_addr constant [12 x i8] c"%s, Seq: %u\00", align 1
@.str.1190 = private unnamed_addr constant [16 x i8] c"Unknown Command\00", align 1
@.str.1241 = private unnamed_addr constant [8 x i8] c"Payload\00", align 1
@dissect_zbee_zcl_on_off.onoff_control_mask = internal constant [3 x ptr] [ptr @hf_zbee_zcl_on_off_timed_off_control_mask_accept_only_when_on, ptr @hf_zbee_zcl_on_off_timed_off_control_mask_reserved, ptr null], align 16

; Function Attrs: null_pointer_is_valid sspstrong uwtable
define internal void @dissect_zcl_on_off_attr_data(ptr noundef %0, ptr noundef %1, ptr noundef %2, i16 noundef zeroext %3, i32 noundef %4, i1 noundef zeroext %5) #0 {
  %7 = alloca ptr, align 8
  %8 = alloca ptr, align 8
  %9 = alloca ptr, align 8
  %10 = alloca i16, align 2
  %11 = alloca i32, align 4
  %12 = alloca i8, align 1
  store ptr %0, ptr %7, align 8
  store ptr %1, ptr %8, align 8
  store ptr %2, ptr %9, align 8
  store i16 %3, ptr %10, align 2
  store i32 %4, ptr %11, align 4
  %13 = zext i1 %5 to i8
  store i8 %13, ptr %12, align 1
  %14 = load i16, ptr %10, align 2
  %15 = zext i16 %14 to i32
  switch i32 %15, label %66 [
    i32 0, label %16
    i32 16384, label %26
    i32 16385, label %36
    i32 16386, label %46
    i32 16387, label %56
  ]

16:                                               ; preds = %6
  %17 = load ptr, ptr %7, align 8
  %18 = load i32, ptr @hf_zbee_zcl_on_off_attr_onoff, align 4
  %19 = load ptr, ptr %8, align 8
  %20 = load ptr, ptr %9, align 8
  %21 = load i32, ptr %20, align 4
  %22 = call ptr @proto_tree_add_item(ptr noundef %17, i32 noundef %18, ptr noundef %19, i32 noundef %21, i32 noundef 1, i32 noundef 0)
  %23 = load ptr, ptr %9, align 8
  %24 = load i32, ptr %23, align 4
  %25 = add i32 %24, 1
  store i32 %25, ptr %23, align 4
  br label %73

26:                                               ; preds = %6
  %27 = load ptr, ptr %7, align 8
  %28 = load i32, ptr @hf_zbee_zcl_on_off_attr_globalscenecontrol, align 4
  %29 = load ptr, ptr %8, align 8
  %30 = load ptr, ptr %9, align 8
  %31 = load i32, ptr %30, align 4
  %32 = call ptr @proto_tree_add_item(ptr noundef %27, i32 noundef %28, ptr noundef %29, i32 noundef %31, i32 noundef 1, i32 noundef 0)
  %33 = load ptr, ptr %9, align 8
  %34 = load i32, ptr %33, align 4
  %35 = add i32 %34, 1
  store i32 %35, ptr %33, align 4
  br label %73

36:                                               ; preds = %6
  %37 = load ptr, ptr %7, align 8
  %38 = load i32, ptr @hf_zbee_zcl_on_off_attr_ontime, align 4
  %39 = load ptr, ptr %8, align 8
  %40 = load ptr, ptr %9, align 8
  %41 = load i32, ptr %40, align 4
  %42 = call ptr @proto_tree_add_item(ptr noundef %37, i32 noundef %38, ptr noundef %39, i32 noundef %41, i32 noundef 2, i32 noundef -2147483648)
  %43 = load ptr, ptr %9, align 8
  %44 = load i32, ptr %43, align 4
  %45 = add i32 %44, 2
  store i32 %45, ptr %43, align 4
  br label %73

46:                                               ; preds = %6
  %47 = load ptr, ptr %7, align 8
  %48 = load i32, ptr @hf_zbee_zcl_on_off_attr_offwaittime, align 4
  %49 = load ptr, ptr %8, align 8
  %50 = load ptr, ptr %9, align 8
  %51 = load i32, ptr %50, align 4
  %52 = call ptr @proto_tree_add_item(ptr noundef %47, i32 noundef %48, ptr noundef %49, i32 noundef %51, i32 noundef 2, i32 noundef -2147483648)
  %53 = load ptr, ptr %9, align 8
  %54 = load i32, ptr %53, align 4
  %55 = add i32 %54, 2
  store i32 %55, ptr %53, align 4
  br label %73

56:                                               ; preds = %6
  %57 = load ptr, ptr %7, align 8
  %58 = load i32, ptr @hf_zbee_zcl_on_off_attr_startuponoff, align 4
  %59 = load ptr, ptr %8, align 8
  %60 = load ptr, ptr %9, align 8
  %61 = load i32, ptr %60, align 4
  %62 = call ptr @proto_tree_add_item(ptr noundef %57, i32 noundef %58, ptr noundef %59, i32 noundef %61, i32 noundef 1, i32 noundef 0)
  %63 = load ptr, ptr %9, align 8
  %64 = load i32, ptr %63, align 4
  %65 = add i32 %64, 1
  store i32 %65, ptr %63, align 4
  br label %73

66:                                               ; preds = %6
  %67 = load ptr, ptr %8, align 8
  %68 = load ptr, ptr %7, align 8
  %69 = load ptr, ptr %9, align 8
  %70 = load i32, ptr %11, align 4
  %71 = load i8, ptr %12, align 1, !range !6, !noundef !7
  %72 = trunc i8 %71 to i1
  call void @dissect_zcl_attr_data(ptr noundef %67, ptr noundef %68, ptr noundef %69, i32 noundef %70, i1 noundef zeroext %72)
  br label %73

73:                                               ; preds = %66, %56, %46, %36, %26, %16
  ret void
}

; Function Attrs: null_pointer_is_valid sspstrong uwtable
define internal i32 @dissect_zbee_zcl_on_off(ptr noundef %0, ptr noundef %1, ptr noundef %2, ptr noundef %3) #0 {
  %5 = alloca i32, align 4
  %6 = alloca ptr, align 8
  %7 = alloca ptr, align 8
  %8 = alloca ptr, align 8
  %9 = alloca ptr, align 8
  %10 = alloca ptr, align 8
  %11 = alloca ptr, align 8
  %12 = alloca i32, align 4
  %13 = alloca i8, align 1
  %14 = alloca i32, align 4
  %15 = alloca i8, align 1
  %16 = alloca i32, align 4
  store ptr %0, ptr %6, align 8
  store ptr %1, ptr %7, align 8
  store ptr %2, ptr %8, align 8
  store ptr %3, ptr %9, align 8
  call void @llvm.lifetime.start.p0(i64 8, ptr %10) #7
  call void @llvm.lifetime.start.p0(i64 8, ptr %11) #7
  call void @llvm.lifetime.start.p0(i64 4, ptr %12) #7
  store i32 0, ptr %12, align 4
  call void @llvm.lifetime.start.p0(i64 1, ptr %13) #7
  call void @llvm.lifetime.start.p0(i64 4, ptr %14) #7
  call void @llvm.lifetime.start.p0(i64 1, ptr %15) #7
  store i8 0, ptr %15, align 1
  %17 = load ptr, ptr %9, align 8
  %18 = icmp eq ptr %17, null
  br i1 %18, label %19, label %20

19:                                               ; preds = %4
  store i32 0, ptr %5, align 4
  store i32 1, ptr %16, align 4
  br label %113

20:                                               ; preds = %4
  %21 = load ptr, ptr %9, align 8
  store ptr %21, ptr %11, align 8
  %22 = load ptr, ptr %11, align 8
  %23 = getelementptr inbounds nuw %struct.zbee_zcl_packet, ptr %22, i32 0, i32 6
  %24 = load i8, ptr %23, align 1
  store i8 %24, ptr %13, align 1
  %25 = load ptr, ptr %11, align 8
  %26 = getelementptr inbounds nuw %struct.zbee_zcl_packet, ptr %25, i32 0, i32 1
  %27 = load i8, ptr %26, align 1, !range !6, !noundef !7
  %28 = trunc i8 %27 to i1
  %29 = zext i1 %28 to i32
  %30 = icmp eq i32 %29, 0
  br i1 %30, label %31, label %110

31:                                               ; preds = %20
  %32 = load ptr, ptr %7, align 8
  %33 = getelementptr inbounds nuw %struct._packet_info, ptr %32, i32 0, i32 1
  %34 = load ptr, ptr %33, align 8
  %35 = load i8, ptr %13, align 1
  %36 = zext i8 %35 to i32
  %37 = call ptr @val_to_str_const(i32 noundef %36, ptr noundef @zbee_zcl_on_off_srv_rx_cmd_names, ptr noundef @.str.1190)
  %38 = load ptr, ptr %11, align 8
  %39 = getelementptr inbounds nuw %struct.zbee_zcl_packet, ptr %38, i32 0, i32 5
  %40 = load i8, ptr %39, align 2
  %41 = zext i8 %40 to i32
  call void (ptr, i32, ptr, ...) @col_append_fstr(ptr noundef %34, i32 noundef 25, ptr noundef @.str.1189, ptr noundef %37, i32 noundef %41)
  %42 = load ptr, ptr %8, align 8
  %43 = load i32, ptr @hf_zbee_zcl_on_off_srv_rx_cmd_id, align 4
  %44 = load ptr, ptr %6, align 8
  %45 = load i32, ptr %12, align 4
  %46 = call ptr @proto_tree_add_item(ptr noundef %42, i32 noundef %43, ptr noundef %44, i32 noundef %45, i32 noundef 1, i32 noundef -2147483648)
  %47 = load ptr, ptr %6, align 8
  %48 = load i32, ptr %12, align 4
  %49 = add i32 %48, 1
  store i32 %49, ptr %12, align 4
  %50 = call i32 @tvb_reported_length_remaining(ptr noundef %47, i32 noundef %49)
  store i32 %50, ptr %14, align 4
  %51 = load i32, ptr %14, align 4
  %52 = icmp sgt i32 %51, 0
  br i1 %52, label %53, label %109

53:                                               ; preds = %31
  %54 = load ptr, ptr %8, align 8
  %55 = load ptr, ptr %6, align 8
  %56 = load i32, ptr %12, align 4
  %57 = load i32, ptr %14, align 4
  %58 = load i32, ptr @ett_zbee_zcl_on_off, align 4
  %59 = call ptr @proto_tree_add_subtree(ptr noundef %54, ptr noundef %55, i32 noundef %56, i32 noundef %57, i32 noundef %58, ptr noundef null, ptr noundef @.str.1241)
  store ptr %59, ptr %10, align 8
  %60 = load i8, ptr %13, align 1
  %61 = zext i8 %60 to i32
  switch i32 %61, label %107 [
    i32 64, label %62
    i32 66, label %94
  ]

62:                                               ; preds = %53
  %63 = load ptr, ptr %10, align 8
  %64 = load i32, ptr @hf_zbee_zcl_on_off_effect_identifier, align 4
  %65 = load ptr, ptr %6, align 8
  %66 = load i32, ptr %12, align 4
  %67 = call ptr @proto_tree_add_item(ptr noundef %63, i32 noundef %64, ptr noundef %65, i32 noundef %66, i32 noundef 1, i32 noundef 0)
  %68 = load ptr, ptr %6, align 8
  %69 = load i32, ptr %12, align 4
  %70 = call zeroext i8 @tvb_get_uint8(ptr noundef %68, i32 noundef %69)
  store i8 %70, ptr %15, align 1
  %71 = load i32, ptr %12, align 4
  %72 = add i32 %71, 1
  store i32 %72, ptr %12, align 4
  %73 = load i8, ptr %15, align 1
  %74 = zext i8 %73 to i32
  switch i32 %74, label %87 [
    i32 0, label %75
    i32 1, label %81
  ]

75:                                               ; preds = %62
  %76 = load ptr, ptr %10, align 8
  %77 = load i32, ptr @hf_zbee_zcl_on_off_effect_variant_delayed_all_off, align 4
  %78 = load ptr, ptr %6, align 8
  %79 = load i32, ptr %12, align 4
  %80 = call ptr @proto_tree_add_item(ptr noundef %76, i32 noundef %77, ptr noundef %78, i32 noundef %79, i32 noundef 1, i32 noundef 0)
  br label %93

81:                                               ; preds = %62
  %82 = load ptr, ptr %10, align 8
  %83 = load i32, ptr @hf_zbee_zcl_on_off_effect_variant_dying_light, align 4
  %84 = load ptr, ptr %6, align 8
  %85 = load i32, ptr %12, align 4
  %86 = call ptr @proto_tree_add_item(ptr noundef %82, i32 noundef %83, ptr noundef %84, i32 noundef %85, i32 noundef 1, i32 noundef 0)
  br label %93

87:                                               ; preds = %62
  %88 = load ptr, ptr %10, align 8
  %89 = load i32, ptr @hf_zbee_zcl_on_off_effect_variant_reserved, align 4
  %90 = load ptr, ptr %6, align 8
  %91 = load i32, ptr %12, align 4
  %92 = call ptr @proto_tree_add_item(ptr noundef %88, i32 noundef %89, ptr noundef %90, i32 noundef %91, i32 noundef 1, i32 noundef 0)
  br label %93

93:                                               ; preds = %87, %81, %75
  br label %108

94:                                               ; preds = %53
  %95 = load ptr, ptr %10, align 8
  %96 = load ptr, ptr %6, align 8
  %97 = load i32, ptr %12, align 4
  %98 = load i32, ptr @hf_zbee_zcl_on_off_timed_off_control_mask, align 4
  %99 = load i32, ptr @ett_zbee_zcl_on_off_timed_off_control_mask, align 4
  %100 = call ptr @proto_tree_add_bitmask(ptr noundef %95, ptr noundef %96, i32 noundef %97, i32 noundef %98, i32 noundef %99, ptr noundef @dissect_zbee_zcl_on_off.onoff_control_mask, i32 noundef -2147483648)
  %101 = load i32, ptr %12, align 4
  %102 = add i32 %101, 1
  store i32 %102, ptr %12, align 4
  %103 = load ptr, ptr %10, align 8
  %104 = load ptr, ptr %6, align 8
  call void @dissect_zcl_on_off_attr_data(ptr noundef %103, ptr noundef %104, ptr noundef %12, i16 noundef zeroext 16385, i32 noundef 5, i1 noundef zeroext false)
  %105 = load ptr, ptr %10, align 8
  %106 = load ptr, ptr %6, align 8
  call void @dissect_zcl_on_off_attr_data(ptr noundef %105, ptr noundef %106, ptr noundef %12, i16 noundef zeroext 16386, i32 noundef 5, i1 noundef zeroext false)
  br label %108

107:                                              ; preds = %53
  br label %108

108:                                              ; preds = %107, %94, %93
  br label %109

109:                                              ; preds = %108, %31
  br label %110

110:                                              ; preds = %109, %20
  %111 = load ptr, ptr %6, align 8
  %112 = call i32 @tvb_captured_length(ptr noundef %111)
  store i32 %112, ptr %5, align 4
  store i32 1, ptr %16, align 4
  br label %113

113:                                              ; preds = %110, %19
  call void @llvm.lifetime.end.p0(i64 1, ptr %15) #7
  call void @llvm.lifetime.end.p0(i64 4, ptr %14) #7
  call void @llvm.lifetime.end.p0(i64 1, ptr %13) #7
  call void @llvm.lifetime.end.p0(i64 4, ptr %12) #7
  call void @llvm.lifetime.end.p0(i64 8, ptr %11) #7
  call void @llvm.lifetime.end.p0(i64 8, ptr %10) #7
  %114 = load i32, ptr %5, align 4
  ret i32 %114
}