; Function Attrs: null_pointer_is_valid sspstrong uwtable
define internal i32 @dissect_zbee_zcl_on_off(ptr noundef %0, ptr noundef readonly captures(none) %1, ptr noundef %2, ptr noundef readonly captures(address_is_null) %3) #0 {
  %5 = icmp eq ptr %3, null
  br i1 %5, label %50, label %6

6:                                                ; preds = %4
  %7 = getelementptr inbounds nuw i8, ptr %3, i64 1
  %8 = load i8, ptr %7, align 1, !range !6, !noundef !7
  %9 = icmp eq i8 %8, 0
  br i1 %9, label %10, label %48

10:                                               ; preds = %6
  %11 = getelementptr inbounds nuw i8, ptr %3, i64 7
  %12 = load i8, ptr %11, align 1
  %13 = getelementptr inbounds nuw i8, ptr %1, i64 8
  %14 = load ptr, ptr %13, align 8
  %15 = zext i8 %12 to i32
  %16 = tail call ptr @val_to_str_const(i32 noundef %15, ptr noundef nonnull @zbee_zcl_on_off_srv_rx_cmd_names, ptr noundef nonnull @.str.1190)
  %17 = getelementptr inbounds nuw i8, ptr %3, i64 6
  %18 = load i8, ptr %17, align 2
  %19 = zext i8 %18 to i32
  tail call void (ptr, i32, ptr, ...) @col_append_fstr(ptr noundef %14, i32 noundef 25, ptr noundef nonnull @.str.1189, ptr noundef %16, i32 noundef %19)
  %20 = load i32, ptr @hf_zbee_zcl_on_off_srv_rx_cmd_id, align 4
  %21 = tail call ptr @proto_tree_add_item(ptr noundef %2, i32 noundef %20, ptr noundef %0, i32 noundef 0, i32 noundef 1, i32 noundef -2147483648)
  %22 = tail call i32 @tvb_reported_length_remaining(ptr noundef %0, i32 noundef 1)
  %23 = icmp sgt i32 %22, 0
  br i1 %23, label %24, label %48

24:                                               ; preds = %10
  %25 = load i32, ptr @ett_zbee_zcl_on_off, align 4
  %26 = tail call ptr @proto_tree_add_subtree(ptr noundef %2, ptr noundef %0, i32 noundef 1, i32 noundef %22, i32 noundef %25, ptr noundef null, ptr noundef nonnull @.str.1241)
  switch i8 %12, label %48 [
    i8 64, label %27
    i8 66, label %40
  ]

27:                                               ; preds = %24
  %28 = load i32, ptr @hf_zbee_zcl_on_off_effect_identifier, align 4
  %29 = tail call ptr @proto_tree_add_item(ptr noundef %26, i32 noundef %28, ptr noundef %0, i32 noundef 1, i32 noundef 1, i32 noundef 0)
  %30 = tail call zeroext i8 @tvb_get_uint8(ptr noundef %0, i32 noundef 1)
  switch i8 %30, label %37 [
    i8 0, label %31
    i8 1, label %34
  ]

31:                                               ; preds = %27
  %32 = load i32, ptr @hf_zbee_zcl_on_off_effect_variant_delayed_all_off, align 4
  %33 = tail call ptr @proto_tree_add_item(ptr noundef %26, i32 noundef %32, ptr noundef %0, i32 noundef 2, i32 noundef 1, i32 noundef 0)
  br label %48

34:                                               ; preds = %27
  %35 = load i32, ptr @hf_zbee_zcl_on_off_effect_variant_dying_light, align 4
  %36 = tail call ptr @proto_tree_add_item(ptr noundef %26, i32 noundef %35, ptr noundef %0, i32 noundef 2, i32 noundef 1, i32 noundef 0)
  br label %48

37:                                               ; preds = %27
  %38 = load i32, ptr @hf_zbee_zcl_on_off_effect_variant_reserved, align 4
  %39 = tail call ptr @proto_tree_add_item(ptr noundef %26, i32 noundef %38, ptr noundef %0, i32 noundef 2, i32 noundef 1, i32 noundef 0)
  br label %48

40:                                               ; preds = %24
  %41 = load i32, ptr @hf_zbee_zcl_on_off_timed_off_control_mask, align 4
  %42 = load i32, ptr @ett_zbee_zcl_on_off_timed_off_control_mask, align 4
  %43 = tail call ptr @proto_tree_add_bitmask(ptr noundef %26, ptr noundef %0, i32 noundef 1, i32 noundef %41, i32 noundef %42, ptr noundef nonnull @dissect_zbee_zcl_on_off.onoff_control_mask, i32 noundef -2147483648)
  %44 = load i32, ptr @hf_zbee_zcl_on_off_attr_ontime, align 4
  %45 = tail call ptr @proto_tree_add_item(ptr noundef %26, i32 noundef %44, ptr noundef %0, i32 noundef 2, i32 noundef 2, i32 noundef -2147483648)
  %46 = load i32, ptr @hf_zbee_zcl_on_off_attr_offwaittime, align 4
  %47 = tail call ptr @proto_tree_add_item(ptr noundef %26, i32 noundef %46, ptr noundef %0, i32 noundef 4, i32 noundef 2, i32 noundef -2147483648)
  br label %48

48:                                               ; preds = %10, %24, %31, %34, %37, %40, %6
  %49 = tail call i32 @tvb_captured_length(ptr noundef %0)
  br label %50

50:                                               ; preds = %4, %48
  %.0 = phi i32 [ %49, %48 ], [ 0, %4 ]
  ret i32 %.0
}